; Function Attrs: nounwind uwtable
define hidden noundef zeroext i1 @X11_SetWindowParent(ptr noundef readonly captures(none) %0, ptr noundef readonly captures(none) %1, ptr noundef readonly captures(address_is_null) %2) local_unnamed_addr #0 {
  %4 = getelementptr inbounds nuw i8, ptr %1, i64 392
  %5 = load ptr, ptr %4, align 8
  %.not = icmp eq ptr %2, null
  br i1 %.not, label %.thread, label %9

.thread:                                          ; preds = %3
  %6 = getelementptr inbounds nuw i8, ptr %0, i64 1656
  %7 = load ptr, ptr %6, align 8
  %8 = load ptr, ptr %7, align 8
  br label %22

9:                                                ; preds = %3
  %10 = getelementptr inbounds nuw i8, ptr %2, i64 392
  %11 = load ptr, ptr %10, align 8
  %12 = getelementptr inbounds nuw i8, ptr %0, i64 1656
  %13 = load ptr, ptr %12, align 8
  %14 = load ptr, ptr %13, align 8
  %.not13 = icmp eq ptr %11, null
  br i1 %.not13, label %22, label %15

15:                                               ; preds = %9
  %16 = load ptr, ptr @X11_XSetTransientForHint, align 8
  %17 = getelementptr inbounds nuw i8, ptr %5, i64 8
  %18 = load i64, ptr %17, align 8
  %19 = getelementptr inbounds nuw i8, ptr %11, i64 8
  %20 = load i64, ptr %19, align 8
  %21 = tail call i32 %16(ptr noundef %14, i64 noundef %18, i64 noundef %20) #12
  br label %31

22:                                               ; preds = %.thread, %9
  %23 = phi ptr [ %8, %.thread ], [ %14, %9 ]
  %24 = phi ptr [ %7, %.thread ], [ %13, %9 ]
  %25 = load ptr, ptr @X11_XDeleteProperty, align 8
  %26 = getelementptr inbounds nuw i8, ptr %5, i64 8
  %27 = load i64, ptr %26, align 8
  %28 = getelementptr inbounds nuw i8, ptr %24, i64 224
  %29 = load i64, ptr %28, align 8
  %30 = tail call i32 %25(ptr noundef %23, i64 noundef %27, i64 noundef %29) #12
  br label %31

31:                                               ; preds = %22, %15
  ret i1 true
}